target datalayout = "e-m:e-p270:32:32-p271:32:32-p272:64:64-i64:64-i128:128-f80:128-n8:16:32:64-S128"
target triple = "x86_64-pc-linux-gnu"

%struct.auth_entry = type { ptr, i64, ptr, i64 }

@entry_cnt = dso_local global i32 0, align 4
@main_auth_entries = dso_local global [8 x %struct.auth_entry] zeroinitializer, align 16

; Function Attrs: nounwind uwtable
define dso_local i32 @authfile_check(ptr noundef %0, ptr noundef %1) #0 {
  %3 = alloca i32, align 4
  %4 = alloca ptr, align 8
  %5 = alloca ptr, align 8
  %6 = alloca i64, align 8
  %7 = alloca i64, align 8
  %8 = alloca i32, align 4
  %9 = alloca i32, align 4
  %10 = alloca ptr, align 8
  store ptr %0, ptr %4, align 8, !tbaa !4
  store ptr %1, ptr %5, align 8, !tbaa !4
  call void @llvm.lifetime.start.p0(i64 8, ptr %6) #7
  %11 = load ptr, ptr %4, align 8, !tbaa !4
  %12 = call i64 @strlen(ptr noundef %11) #9
  store i64 %12, ptr %6, align 8, !tbaa !28
  call void @llvm.lifetime.start.p0(i64 8, ptr %7) #7
  %13 = load ptr, ptr %5, align 8, !tbaa !4
  %14 = call i64 @strlen(ptr noundef %13) #9
  store i64 %14, ptr %7, align 8, !tbaa !28
  call void @llvm.lifetime.start.p0(i64 4, ptr %8) #7
  store i32 0, ptr %8, align 4, !tbaa !18
  br label %15

15:                                               ; preds = %58, %2
  %16 = load i32, ptr %8, align 4, !tbaa !18
  %17 = load i32, ptr @entry_cnt, align 4, !tbaa !18
  %18 = icmp slt i32 %16, %17
  br i1 %18, label %20, label %19

19:                                               ; preds = %15
  store i32 2, ptr %9, align 4
  br label %61

20:                                               ; preds = %15
  call void @llvm.lifetime.start.p0(i64 8, ptr %10) #7
  %21 = load i32, ptr %8, align 4, !tbaa !18
  %22 = sext i32 %21 to i64
  %23 = getelementptr inbounds [8 x %struct.auth_entry], ptr @main_auth_entries, i64 0, i64 %22
  store ptr %23, ptr %10, align 8, !tbaa !16
  %24 = load i64, ptr %6, align 8, !tbaa !28
  %25 = load ptr, ptr %10, align 8, !tbaa !16
  %26 = getelementptr inbounds nuw %struct.auth_entry, ptr %25, i32 0, i32 1
  %27 = load i64, ptr %26, align 8, !tbaa !22
  %28 = icmp eq i64 %24, %27
  br i1 %28, label %29, label %54

29:                                               ; preds = %20
  %30 = load i64, ptr %7, align 8, !tbaa !28
  %31 = load ptr, ptr %10, align 8, !tbaa !16
  %32 = getelementptr inbounds nuw %struct.auth_entry, ptr %31, i32 0, i32 3
  %33 = load i64, ptr %32, align 8, !tbaa !24
  %34 = icmp eq i64 %30, %33
  br i1 %34, label %35, label %54

35:                                               ; preds = %29
  %36 = load ptr, ptr %4, align 8, !tbaa !4
  %37 = load ptr, ptr %10, align 8, !tbaa !16
  %38 = getelementptr inbounds nuw %struct.auth_entry, ptr %37, i32 0, i32 0
  %39 = load ptr, ptr %38, align 8, !tbaa !20
  %40 = load ptr, ptr %10, align 8, !tbaa !16
  %41 = getelementptr inbounds nuw %struct.auth_entry, ptr %40, i32 0, i32 1
  %42 = load i64, ptr %41, align 8, !tbaa !22
  %43 = call zeroext i1 @safe_memcmp(ptr noundef %36, ptr noundef %39, i64 noundef %42)
  br i1 %43, label %44, label %54

44:                                               ; preds = %35
  %45 = load ptr, ptr %5, align 8, !tbaa !4
  %46 = load ptr, ptr %10, align 8, !tbaa !16
  %47 = getelementptr inbounds nuw %struct.auth_entry, ptr %46, i32 0, i32 2
  %48 = load ptr, ptr %47, align 8, !tbaa !23
  %49 = load ptr, ptr %10, align 8, !tbaa !16
  %50 = getelementptr inbounds nuw %struct.auth_entry, ptr %49, i32 0, i32 3
  %51 = load i64, ptr %50, align 8, !tbaa !24
  %52 = call zeroext i1 @safe_memcmp(ptr noundef %45, ptr noundef %48, i64 noundef %51)
  br i1 %52, label %53, label %54

53:                                               ; preds = %44
  store i32 1, ptr %3, align 4
  store i32 1, ptr %9, align 4
  br label %55

54:                                               ; preds = %44, %35, %29, %20
  store i32 0, ptr %9, align 4
  br label %55

55:                                               ; preds = %54, %53
  call void @llvm.lifetime.end.p0(i64 8, ptr %10) #7
  %56 = load i32, ptr %9, align 4
  switch i32 %56, label %61 [
    i32 0, label %57
  ]

57:                                               ; preds = %55
  br label %58

58:                                               ; preds = %57
  %59 = load i32, ptr %8, align 4, !tbaa !18
  %60 = add nsw i32 %59, 1
  store i32 %60, ptr %8, align 4, !tbaa !18
  br label %15, !llvm.loop !29

61:                                               ; preds = %55, %19
  call void @llvm.lifetime.end.p0(i64 4, ptr %8) #7
  %62 = load i32, ptr %9, align 4
  switch i32 %62, label %64 [
    i32 2, label %63
  ]

63:                                               ; preds = %61
  store i32 0, ptr %3, align 4
  store i32 1, ptr %9, align 4
  br label %64

64:                                               ; preds = %63, %61
  call void @llvm.lifetime.end.p0(i64 8, ptr %7) #7
  call void @llvm.lifetime.end.p0(i64 8, ptr %6) #7
  %65 = load i32, ptr %3, align 4
  ret i32 %65
}